target datalayout = "e-m:e-p270:32:32-p271:32:32-p272:64:64-i64:64-i128:128-f80:128-n8:16:32:64-S128"
target triple = "x86_64-pc-linux-gnu"

%struct.AVFilterContext = type { ptr, ptr, ptr, ptr, ptr, i32, ptr, ptr, i32, ptr, ptr, i32, i32, ptr, ptr, ptr, ptr, i32, ptr, i32, i32 }
%struct.GuidedContext = type { ptr, %struct.FFFrameSync, i32, float, i32, i32, i32, i32, i32, i32, i32, i32, [4 x i32], [4 x i32], ptr, ptr, ptr, ptr, ptr, ptr, ptr, ptr, ptr, ptr, ptr, ptr, ptr }
%struct.FFFrameSync = type { ptr, ptr, i32, %struct.AVRational, i64, ptr, ptr, i32, i32, i8, i8, ptr, i32, i32, i32, i32 }
%struct.AVRational = type { i32, i32 }
%struct.AVFilterLink = type { ptr, ptr, ptr, ptr, i32, i32, i32, i32, %struct.AVRational, i32, i32, i32, %struct.AVChannelLayout, %struct.AVRational, ptr, i32, %struct.AVFilterFormatsConfig, %struct.AVFilterFormatsConfig }
%struct.AVChannelLayout = type { i32, i32, %union.anon.1, ptr }
%union.anon.1 = type { i64 }
%struct.AVFilterFormatsConfig = type { ptr, ptr, ptr, ptr, ptr }
%struct.AVPixFmtDescriptor = type { ptr, i8, i8, i8, i64, [4 x %struct.AVComponentDescriptor], ptr }
%struct.AVComponentDescriptor = type { i32, i32, i32, i32, i32 }

; Function Attrs: nounwind uwtable
define internal i32 @config_input(ptr noundef %0) #2 {
  %2 = alloca ptr, align 8
  %3 = alloca ptr, align 8
  %4 = alloca ptr, align 8
  %5 = alloca ptr, align 8
  store ptr %0, ptr %2, align 8, !tbaa !38
  call void @llvm.lifetime.start.p0(i64 8, ptr %3) #10
  %6 = load ptr, ptr %2, align 8, !tbaa !38
  %7 = getelementptr inbounds nuw %struct.AVFilterLink, ptr %6, i32 0, i32 2
  %8 = load ptr, ptr %7, align 8, !tbaa !118
  store ptr %8, ptr %3, align 8, !tbaa !4
  call void @llvm.lifetime.start.p0(i64 8, ptr %4) #10
  %9 = load ptr, ptr %3, align 8, !tbaa !4
  %10 = getelementptr inbounds nuw %struct.AVFilterContext, ptr %9, i32 0, i32 9
  %11 = load ptr, ptr %10, align 8, !tbaa !9
  store ptr %11, ptr %4, align 8, !tbaa !22
  call void @llvm.lifetime.start.p0(i64 8, ptr %5) #10
  %12 = load ptr, ptr %2, align 8, !tbaa !38
  %13 = getelementptr inbounds nuw %struct.AVFilterLink, ptr %12, i32 0, i32 5
  %14 = load i32, ptr %13, align 4, !tbaa !119
  %15 = call ptr @av_pix_fmt_desc_get(i32 noundef %14)
  store ptr %15, ptr %5, align 8, !tbaa !120
  %16 = load ptr, ptr %4, align 8, !tbaa !22
  %17 = getelementptr inbounds nuw %struct.GuidedContext, ptr %16, i32 0, i32 4
  %18 = load i32, ptr %17, align 8, !tbaa !122
  %19 = icmp eq i32 %18, 0
  br i1 %19, label %20, label %23

20:                                               ; preds = %1
  %21 = load ptr, ptr %4, align 8, !tbaa !22
  %22 = getelementptr inbounds nuw %struct.GuidedContext, ptr %21, i32 0, i32 5
  store i32 1, ptr %22, align 4, !tbaa !91
  br label %51

23:                                               ; preds = %1
  %24 = load ptr, ptr %4, align 8, !tbaa !22
  %25 = getelementptr inbounds nuw %struct.GuidedContext, ptr %24, i32 0, i32 4
  %26 = load i32, ptr %25, align 8, !tbaa !122
  %27 = icmp eq i32 %26, 1
  br i1 %27, label %28, label %50

28:                                               ; preds = %23
  %29 = load ptr, ptr %4, align 8, !tbaa !22
  %30 = getelementptr inbounds nuw %struct.GuidedContext, ptr %29, i32 0, i32 2
  %31 = load i32, ptr %30, align 8, !tbaa !86
  %32 = load ptr, ptr %4, align 8, !tbaa !22
  %33 = getelementptr inbounds nuw %struct.GuidedContext, ptr %32, i32 0, i32 5
  %34 = load i32, ptr %33, align 4, !tbaa !91
  %35 = icmp sge i32 %31, %34
  br i1 %35, label %36, label %46

36:                                               ; preds = %28
  %37 = load ptr, ptr %4, align 8, !tbaa !22
  %38 = getelementptr inbounds nuw %struct.GuidedContext, ptr %37, i32 0, i32 2
  %39 = load i32, ptr %38, align 8, !tbaa !86
  %40 = load ptr, ptr %4, align 8, !tbaa !22
  %41 = getelementptr inbounds nuw %struct.GuidedContext, ptr %40, i32 0, i32 5
  %42 = load i32, ptr %41, align 4, !tbaa !91
  %43 = sdiv i32 %39, %42
  %44 = load ptr, ptr %4, align 8, !tbaa !22
  %45 = getelementptr inbounds nuw %struct.GuidedContext, ptr %44, i32 0, i32 2
  store i32 %43, ptr %45, align 8, !tbaa !86
  br label %49

46:                                               ; preds = %28
  %47 = load ptr, ptr %4, align 8, !tbaa !22
  %48 = getelementptr inbounds nuw %struct.GuidedContext, ptr %47, i32 0, i32 2
  store i32 1, ptr %48, align 8, !tbaa !86
  br label %49

49:                                               ; preds = %46, %36
  br label %50

50:                                               ; preds = %49, %23
  br label %51

51:                                               ; preds = %50, %20
  %52 = load ptr, ptr %5, align 8, !tbaa !120
  %53 = getelementptr inbounds nuw %struct.AVPixFmtDescriptor, ptr %52, i32 0, i32 5
  %54 = getelementptr inbounds [4 x %struct.AVComponentDescriptor], ptr %53, i64 0, i64 0
  %55 = getelementptr inbounds nuw %struct.AVComponentDescriptor, ptr %54, i32 0, i32 4
  %56 = load i32, ptr %55, align 8, !tbaa !123
  %57 = load ptr, ptr %4, align 8, !tbaa !22
  %58 = getelementptr inbounds nuw %struct.GuidedContext, ptr %57, i32 0, i32 11
  store i32 %56, ptr %58, align 4, !tbaa !85
  %59 = load ptr, ptr %3, align 8, !tbaa !4
  %60 = getelementptr inbounds nuw %struct.AVFilterContext, ptr %59, i32 0, i32 4
  %61 = load ptr, ptr %60, align 8, !tbaa !40
  %62 = getelementptr inbounds ptr, ptr %61, i64 0
  %63 = load ptr, ptr %62, align 8, !tbaa !38
  %64 = getelementptr inbounds nuw %struct.AVFilterLink, ptr %63, i32 0, i32 6
  %65 = load i32, ptr %64, align 8, !tbaa !54
  %66 = load ptr, ptr %4, align 8, !tbaa !22
  %67 = getelementptr inbounds nuw %struct.GuidedContext, ptr %66, i32 0, i32 8
  store i32 %65, ptr %67, align 8, !tbaa !125
  %68 = load ptr, ptr %3, align 8, !tbaa !4
  %69 = getelementptr inbounds nuw %struct.AVFilterContext, ptr %68, i32 0, i32 4
  %70 = load ptr, ptr %69, align 8, !tbaa !40
  %71 = getelementptr inbounds ptr, ptr %70, i64 0
  %72 = load ptr, ptr %71, align 8, !tbaa !38
  %73 = getelementptr inbounds nuw %struct.AVFilterLink, ptr %72, i32 0, i32 7
  %74 = load i32, ptr %73, align 4, !tbaa !55
  %75 = load ptr, ptr %4, align 8, !tbaa !22
  %76 = getelementptr inbounds nuw %struct.GuidedContext, ptr %75, i32 0, i32 9
  store i32 %74, ptr %76, align 4, !tbaa !126
  %77 = load ptr, ptr %5, align 8, !tbaa !120
  %78 = getelementptr inbounds nuw %struct.AVPixFmtDescriptor, ptr %77, i32 0, i32 2
  %79 = load i8, ptr %78, align 1, !tbaa !127
  %80 = call i1 @llvm.is.constant.i8(i8 %79)
  br i1 %80, label %92, label %81

81:                                               ; preds = %51
  %82 = load ptr, ptr %2, align 8, !tbaa !38
  %83 = getelementptr inbounds nuw %struct.AVFilterLink, ptr %82, i32 0, i32 6
  %84 = load i32, ptr %83, align 8, !tbaa !54
  %85 = sub nsw i32 0, %84
  %86 = load ptr, ptr %5, align 8, !tbaa !120
  %87 = getelementptr inbounds nuw %struct.AVPixFmtDescriptor, ptr %86, i32 0, i32 2
  %88 = load i8, ptr %87, align 1, !tbaa !127
  %89 = zext i8 %88 to i32
  %90 = ashr i32 %85, %89
  %91 = sub nsw i32 0, %90
  br label %108

92:                                               ; preds = %51
  %93 = load ptr, ptr %2, align 8, !tbaa !38
  %94 = getelementptr inbounds nuw %struct.AVFilterLink, ptr %93, i32 0, i32 6
  %95 = load i32, ptr %94, align 8, !tbaa !54
  %96 = load ptr, ptr %5, align 8, !tbaa !120
  %97 = getelementptr inbounds nuw %struct.AVPixFmtDescriptor, ptr %96, i32 0, i32 2
  %98 = load i8, ptr %97, align 1, !tbaa !127
  %99 = zext i8 %98 to i32
  %100 = shl i32 1, %99
  %101 = add nsw i32 %95, %100
  %102 = sub nsw i32 %101, 1
  %103 = load ptr, ptr %5, align 8, !tbaa !120
  %104 = getelementptr inbounds nuw %struct.AVPixFmtDescriptor, ptr %103, i32 0, i32 2
  %105 = load i8, ptr %104, align 1, !tbaa !127
  %106 = zext i8 %105 to i32
  %107 = ashr i32 %102, %106
  br label %108

108:                                              ; preds = %92, %81
  %109 = phi i32 [ %91, %81 ], [ %107, %92 ]
  %110 = load ptr, ptr %4, align 8, !tbaa !22
  %111 = getelementptr inbounds nuw %struct.GuidedContext, ptr %110, i32 0, i32 12
  %112 = getelementptr inbounds [4 x i32], ptr %111, i64 0, i64 2
  store i32 %109, ptr %112, align 8, !tbaa !28
  %113 = load ptr, ptr %4, align 8, !tbaa !22
  %114 = getelementptr inbounds nuw %struct.GuidedContext, ptr %113, i32 0, i32 12
  %115 = getelementptr inbounds [4 x i32], ptr %114, i64 0, i64 1
  store i32 %109, ptr %115, align 4, !tbaa !28
  %116 = load ptr, ptr %2, align 8, !tbaa !38
  %117 = getelementptr inbounds nuw %struct.AVFilterLink, ptr %116, i32 0, i32 6
  %118 = load i32, ptr %117, align 8, !tbaa !54
  %119 = load ptr, ptr %4, align 8, !tbaa !22
  %120 = getelementptr inbounds nuw %struct.GuidedContext, ptr %119, i32 0, i32 12
  %121 = getelementptr inbounds [4 x i32], ptr %120, i64 0, i64 3
  store i32 %118, ptr %121, align 4, !tbaa !28
  %122 = load ptr, ptr %4, align 8, !tbaa !22
  %123 = getelementptr inbounds nuw %struct.GuidedContext, ptr %122, i32 0, i32 12
  %124 = getelementptr inbounds [4 x i32], ptr %123, i64 0, i64 0
  store i32 %118, ptr %124, align 8, !tbaa !28
  %125 = load ptr, ptr %5, align 8, !tbaa !120
  %126 = getelementptr inbounds nuw %struct.AVPixFmtDescriptor, ptr %125, i32 0, i32 3
  %127 = load i8, ptr %126, align 2, !tbaa !129
  %128 = call i1 @llvm.is.constant.i8(i8 %127)
  br i1 %128, label %140, label %129

129:                                              ; preds = %108
  %130 = load ptr, ptr %2, align 8, !tbaa !38
  %131 = getelementptr inbounds nuw %struct.AVFilterLink, ptr %130, i32 0, i32 7
  %132 = load i32, ptr %131, align 4, !tbaa !55
  %133 = sub nsw i32 0, %132
  %134 = load ptr, ptr %5, align 8, !tbaa !120
  %135 = getelementptr inbounds nuw %struct.AVPixFmtDescriptor, ptr %134, i32 0, i32 3
  %136 = load i8, ptr %135, align 2, !tbaa !129
  %137 = zext i8 %136 to i32
  %138 = ashr i32 %133, %137
  %139 = sub nsw i32 0, %138
  br label %156

140:                                              ; preds = %108
  %141 = load ptr, ptr %2, align 8, !tbaa !38
  %142 = getelementptr inbounds nuw %struct.AVFilterLink, ptr %141, i32 0, i32 7
  %143 = load i32, ptr %142, align 4, !tbaa !55
  %144 = load ptr, ptr %5, align 8, !tbaa !120
  %145 = getelementptr inbounds nuw %struct.AVPixFmtDescriptor, ptr %144, i32 0, i32 3
  %146 = load i8, ptr %145, align 2, !tbaa !129
  %147 = zext i8 %146 to i32
  %148 = shl i32 1, %147
  %149 = add nsw i32 %143, %148
  %150 = sub nsw i32 %149, 1
  %151 = load ptr, ptr %5, align 8, !tbaa !120
  %152 = getelementptr inbounds nuw %struct.AVPixFmtDescriptor, ptr %151, i32 0, i32 3
  %153 = load i8, ptr %152, align 2, !tbaa !129
  %154 = zext i8 %153 to i32
  %155 = ashr i32 %150, %154
  br label %156

156:                                              ; preds = %140, %129
  %157 = phi i32 [ %139, %129 ], [ %155, %140 ]
  %158 = load ptr, ptr %4, align 8, !tbaa !22
  %159 = getelementptr inbounds nuw %struct.GuidedContext, ptr %158, i32 0, i32 13
  %160 = getelementptr inbounds [4 x i32], ptr %159, i64 0, i64 2
  store i32 %157, ptr %160, align 8, !tbaa !28
  %161 = load ptr, ptr %4, align 8, !tbaa !22
  %162 = getelementptr inbounds nuw %struct.GuidedContext, ptr %161, i32 0, i32 13
  %163 = getelementptr inbounds [4 x i32], ptr %162, i64 0, i64 1
  store i32 %157, ptr %163, align 4, !tbaa !28
  %164 = load ptr, ptr %2, align 8, !tbaa !38
  %165 = getelementptr inbounds nuw %struct.AVFilterLink, ptr %164, i32 0, i32 7
  %166 = load i32, ptr %165, align 4, !tbaa !55
  %167 = load ptr, ptr %4, align 8, !tbaa !22
  %168 = getelementptr inbounds nuw %struct.GuidedContext, ptr %167, i32 0, i32 13
  %169 = getelementptr inbounds [4 x i32], ptr %168, i64 0, i64 3
  store i32 %166, ptr %169, align 4, !tbaa !28
  %170 = load ptr, ptr %4, align 8, !tbaa !22
  %171 = getelementptr inbounds nuw %struct.GuidedContext, ptr %170, i32 0, i32 13
  %172 = getelementptr inbounds [4 x i32], ptr %171, i64 0, i64 0
  store i32 %166, ptr %172, align 8, !tbaa !28
  %173 = load ptr, ptr %2, align 8, !tbaa !38
  %174 = getelementptr inbounds nuw %struct.AVFilterLink, ptr %173, i32 0, i32 5
  %175 = load i32, ptr %174, align 4, !tbaa !119
  %176 = call i32 @av_pix_fmt_count_planes(i32 noundef %175)
  %177 = load ptr, ptr %4, align 8, !tbaa !22
  %178 = getelementptr inbounds nuw %struct.GuidedContext, ptr %177, i32 0, i32 10
  store i32 %176, ptr %178, align 8, !tbaa !82
  %179 = load ptr, ptr %4, align 8, !tbaa !22
  %180 = getelementptr inbounds nuw %struct.GuidedContext, ptr %179, i32 0, i32 26
  store ptr @box_slice, ptr %180, align 8, !tbaa !103
  call void @llvm.lifetime.end.p0(i64 8, ptr %5) #10
  call void @llvm.lifetime.end.p0(i64 8, ptr %4) #10
  call void @llvm.lifetime.end.p0(i64 8, ptr %3) #10
  ret i32 0
}