; Function Attrs: nounwind uwtable
define internal noundef i32 @config_input(ptr noundef readonly captures(none) %0) #2 {
  %2 = getelementptr inbounds nuw i8, ptr %0, i64 16
  %3 = load ptr, ptr %2, align 8, !tbaa !103
  %4 = getelementptr inbounds nuw i8, ptr %3, i64 72
  %5 = load ptr, ptr %4, align 8, !tbaa !4
  %6 = getelementptr inbounds nuw i8, ptr %0, i64 36
  %7 = load i32, ptr %6, align 4, !tbaa !104
  %8 = tail call ptr @av_pix_fmt_desc_get(i32 noundef %7) #9
  %9 = getelementptr inbounds nuw i8, ptr %5, i64 112
  %10 = load i32, ptr %9, align 8, !tbaa !105
  switch i32 %10, label %21 [
    i32 0, label %11
    i32 1, label %13
  ]

11:                                               ; preds = %1
  %12 = getelementptr inbounds nuw i8, ptr %5, i64 116
  store i32 1, ptr %12, align 4, !tbaa !76
  br label %21

13:                                               ; preds = %1
  %14 = getelementptr inbounds nuw i8, ptr %5, i64 104
  %15 = load i32, ptr %14, align 8, !tbaa !106
  %16 = getelementptr inbounds nuw i8, ptr %5, i64 116
  %17 = load i32, ptr %16, align 4, !tbaa !76
  %.not = icmp slt i32 %15, %17
  br i1 %.not, label %20, label %18

18:                                               ; preds = %13
  %19 = sdiv i32 %15, %17
  store i32 %19, ptr %14, align 8, !tbaa !106
  br label %21

20:                                               ; preds = %13
  store i32 1, ptr %14, align 8, !tbaa !106
  br label %21

21:                                               ; preds = %1, %20, %18, %11
  %22 = getelementptr inbounds nuw i8, ptr %8, i64 40
  %23 = load i32, ptr %22, align 8, !tbaa !107
  %24 = getelementptr inbounds nuw i8, ptr %5, i64 140
  store i32 %23, ptr %24, align 4, !tbaa !74
  %25 = getelementptr inbounds nuw i8, ptr %3, i64 32
  %26 = load ptr, ptr %25, align 8, !tbaa !36
  %27 = load ptr, ptr %26, align 8, !tbaa !34
  %28 = getelementptr inbounds nuw i8, ptr %27, i64 40
  %29 = load i32, ptr %28, align 8, !tbaa !49
  %30 = getelementptr inbounds nuw i8, ptr %5, i64 128
  store i32 %29, ptr %30, align 8, !tbaa !109
  %31 = getelementptr inbounds nuw i8, ptr %27, i64 44
  %32 = load i32, ptr %31, align 4, !tbaa !50
  %33 = getelementptr inbounds nuw i8, ptr %5, i64 132
  store i32 %32, ptr %33, align 4, !tbaa !110
  %34 = getelementptr inbounds nuw i8, ptr %0, i64 40
  %35 = load i32, ptr %34, align 8, !tbaa !49
  %36 = sub nsw i32 0, %35
  %37 = getelementptr inbounds nuw i8, ptr %8, i64 9
  %38 = load i8, ptr %37, align 1, !tbaa !111
  %39 = zext nneg i8 %38 to i32
  %40 = ashr i32 %36, %39
  %41 = sub nsw i32 0, %40
  %42 = getelementptr inbounds nuw i8, ptr %5, i64 144
  %43 = getelementptr inbounds nuw i8, ptr %5, i64 152
  store i32 %41, ptr %43, align 8, !tbaa !40
  %44 = getelementptr inbounds nuw i8, ptr %5, i64 148
  store i32 %41, ptr %44, align 4, !tbaa !40
  %45 = getelementptr inbounds nuw i8, ptr %0, i64 40
  %46 = load i32, ptr %45, align 8, !tbaa !49
  %47 = getelementptr inbounds nuw i8, ptr %5, i64 156
  store i32 %46, ptr %47, align 4, !tbaa !40
  store i32 %46, ptr %42, align 8, !tbaa !40
  %48 = getelementptr inbounds nuw i8, ptr %0, i64 44
  %49 = load i32, ptr %48, align 4, !tbaa !50
  %50 = sub nsw i32 0, %49
  %51 = getelementptr inbounds nuw i8, ptr %8, i64 10
  %52 = load i8, ptr %51, align 2, !tbaa !113
  %53 = zext nneg i8 %52 to i32
  %54 = ashr i32 %50, %53
  %55 = sub nsw i32 0, %54
  %56 = getelementptr inbounds nuw i8, ptr %5, i64 160
  %57 = getelementptr inbounds nuw i8, ptr %5, i64 168
  store i32 %55, ptr %57, align 8, !tbaa !40
  %58 = getelementptr inbounds nuw i8, ptr %5, i64 164
  store i32 %55, ptr %58, align 4, !tbaa !40
  %59 = getelementptr inbounds nuw i8, ptr %0, i64 44
  %60 = load i32, ptr %59, align 4, !tbaa !50
  %61 = getelementptr inbounds nuw i8, ptr %5, i64 172
  store i32 %60, ptr %61, align 4, !tbaa !40
  store i32 %60, ptr %56, align 8, !tbaa !40
  %62 = load i32, ptr %6, align 4, !tbaa !104
  %63 = tail call i32 @av_pix_fmt_count_planes(i32 noundef %62) #9
  %64 = getelementptr inbounds nuw i8, ptr %5, i64 136
  store i32 %63, ptr %64, align 8, !tbaa !71
  %65 = getelementptr inbounds nuw i8, ptr %5, i64 272
  store ptr @box_slice, ptr %65, align 8, !tbaa !89
  ret i32 0
}